; Function Attrs: mustprogress uwtable
define void @_ZN32pxrInternal_v0_24__pxrReserved__12SdfLayerTree3NewERKNS_9TfWeakPtrINS_8SdfLayerEEERKSt6vectorINS_8TfRefPtrIS0_EESaIS8_EERKNS_14SdfLayerOffsetE(ptr dead_on_unwind noalias writable writeonly sret(%"class.pxrInternal_v0_24__pxrReserved__::TfRefPtr") align 8 captures(none) %0, ptr noundef nonnull align 8 dereferenceable(16) %1, ptr noundef nonnull align 8 dereferenceable(24) %2, ptr noundef nonnull align 8 dereferenceable(16) %3) local_unnamed_addr #0 align 2 personality ptr @__gxx_personality_v0 {
  %5 = tail call noalias noundef nonnull dereferenceable(80) ptr @_Znwm(i64 noundef 80) #12
  invoke void @_ZN32pxrInternal_v0_24__pxrReserved__12SdfLayerTreeC1ERKNS_9TfWeakPtrINS_8SdfLayerEEERKSt6vectorINS_8TfRefPtrIS0_EESaIS8_EERKNS_14SdfLayerOffsetE(ptr noundef nonnull align 8 dereferenceable(80) %5, ptr noundef nonnull align 8 dereferenceable(16) %1, ptr noundef nonnull align 8 dereferenceable(24) %2, ptr noundef nonnull align 8 dereferenceable(16) %3)
          to label %6 unwind label %7

6:                                                ; preds = %4
  store ptr %5, ptr %0, align 8, !alias.scope !4
  ret void

7:                                                ; preds = %4
  %8 = landingpad { ptr, i32 }
          cleanup
  tail call void @_ZdlPvm(ptr noundef nonnull %5, i64 noundef 80) #13
  resume { ptr, i32 } %8
}